; Function Attrs: mustprogress nounwind uwtable
define { ptr, i32 } @_ZN5boost8charconv10from_charsEPKcS2_RdNS0_12chars_formatE(ptr noundef %0, ptr noundef %1, ptr nocapture noundef nonnull writeonly align 8 dereferenceable(8) %2, i32 noundef %3) local_unnamed_addr #0 personality ptr @__gxx_personality_v0 {
  %5 = alloca double, align 8
  call void @llvm.lifetime.start.p0(i64 8, ptr nonnull %5) #13
  store double 0.000000e+00, ptr %5, align 8, !tbaa !13
  %.not.i.i = icmp eq i32 %3, 4
  br i1 %.not.i.i, label %8, label %6

6:                                                ; preds = %4
  %.sroa.0.0.insert.ext.i.i.i = zext i32 %3 to i64
  %.sroa.0.0.insert.insert.i.i.i = or disjoint i64 %.sroa.0.0.insert.ext.i.i.i, 197568495616
  %7 = call { ptr, i32 } @_ZN5boost8charconv6detail10fast_float19from_chars_advancedIdcEENS0_19from_chars_result_tIT0_EEPKS5_S8_RT_NS2_15parse_options_tIS5_EE(ptr noundef %0, ptr noundef %1, ptr noundef nonnull align 8 dereferenceable(8) %5, i64 %.sroa.0.0.insert.insert.i.i.i) #13
  br label %_ZN5boost8charconv17from_chars_erangeEPKcS2_RdNS0_12chars_formatE.exit.i

8:                                                ; preds = %4
  %9 = call { ptr, i32 } @_ZN5boost8charconv6detail21from_chars_float_implIdEENS0_19from_chars_result_tIcEEPKcS6_RT_NS0_12chars_formatE(ptr noundef %0, ptr noundef %1, ptr noundef nonnull align 8 dereferenceable(8) %5, i32 noundef 4) #13
  br label %_ZN5boost8charconv17from_chars_erangeEPKcS2_RdNS0_12chars_formatE.exit.i

_ZN5boost8charconv17from_chars_erangeEPKcS2_RdNS0_12chars_formatE.exit.i: ; preds = %8, %6
  %.pn.i.i = phi { ptr, i32 } [ %7, %6 ], [ %9, %8 ]
  %10 = extractvalue { ptr, i32 } %.pn.i.i, 1
  %11 = icmp eq i32 %10, 0
  br i1 %11, label %12, label %_ZN12_GLOBAL__N_122from_chars_strict_implIdEEN5boost8charconv19from_chars_result_tIcEEPKcS6_RT_NS2_12chars_formatE.exit

12:                                               ; preds = %_ZN5boost8charconv17from_chars_erangeEPKcS2_RdNS0_12chars_formatE.exit.i
  %13 = load double, ptr %5, align 8, !tbaa !13
  store double %13, ptr %2, align 8, !tbaa !13
  br label %_ZN12_GLOBAL__N_122from_chars_strict_implIdEEN5boost8charconv19from_chars_result_tIcEEPKcS6_RT_NS2_12chars_formatE.exit

_ZN12_GLOBAL__N_122from_chars_strict_implIdEEN5boost8charconv19from_chars_result_tIcEEPKcS6_RT_NS2_12chars_formatE.exit: ; preds = %_ZN5boost8charconv17from_chars_erangeEPKcS2_RdNS0_12chars_formatE.exit.i, %12
  call void @llvm.lifetime.end.p0(i64 8, ptr nonnull %5) #13
  ret { ptr, i32 } %.pn.i.i
}